; Function Attrs: mustprogress uwtable
define void @_ZN6icu_7713DecimalFormat14setPadPositionENS0_12EPadPositionE(ptr noundef nonnull align 8 dereferenceable(72) %0, i32 noundef %1) unnamed_addr #1 align 2 {
  %3 = alloca i32, align 4
  %4 = getelementptr inbounds nuw i8, ptr %0, i64 64
  %5 = load ptr, ptr %4, align 8, !tbaa !25
  %6 = icmp eq ptr %5, null
  br i1 %6, label %17, label %7

7:                                                ; preds = %2
  %8 = getelementptr inbounds nuw i8, ptr %5, i64 392
  %9 = load i8, ptr %8, align 4, !tbaa !144, !range !45, !noundef !49
  %10 = trunc nuw i8 %9 to i1
  br i1 %10, label %15, label %11

11:                                               ; preds = %7
  %12 = getelementptr inbounds nuw i8, ptr %5, i64 396
  %13 = load i32, ptr %12, align 4, !tbaa !145
  %14 = icmp eq i32 %1, %13
  br i1 %14, label %17, label %15

15:                                               ; preds = %11, %7
  %16 = getelementptr inbounds nuw i8, ptr %5, i64 396
  store i32 %1, ptr %16, align 4, !tbaa !145
  store i8 0, ptr %8, align 4, !tbaa !144
  call void @llvm.lifetime.start.p0(i64 4, ptr nonnull %3) #19
  store i32 0, ptr %3, align 4, !tbaa !13
  call void @_ZN6icu_7713DecimalFormat5touchER10UErrorCode(ptr noundef nonnull align 8 dereferenceable(72) %0, ptr noundef nonnull align 4 dereferenceable(4) %3)
  call void @llvm.lifetime.end.p0(i64 4, ptr nonnull %3) #19
  br label %17

17:                                               ; preds = %15, %11, %2
  ret void
}